target datalayout = "e-m:e-p270:32:32-p271:32:32-p272:64:64-i64:64-i128:128-f80:128-n8:16:32:64-S128"
target triple = "x86_64-pc-linux-gnu"

; Function Attrs: nounwind uwtable
define internal i32 @cbuf_get_mem(ptr noundef %0, ptr noundef %1, i32 noundef %2) #0 {
  %4 = alloca ptr, align 8
  %5 = alloca ptr, align 8
  %6 = alloca i32, align 4
  store ptr %0, ptr %4, align 8
  store ptr %1, ptr %5, align 8
  store i32 %2, ptr %6, align 4
  %7 = load ptr, ptr %4, align 8
  %8 = load ptr, ptr %5, align 8
  %9 = load ptr, ptr %8, align 8
  %10 = load i32, ptr %6, align 4
  %11 = sext i32 %10 to i64
  call void @llvm.memcpy.p0.p0.i64(ptr align 1 %7, ptr align 1 %9, i64 %11, i1 false)
  %12 = load i32, ptr %6, align 4
  %13 = load ptr, ptr %5, align 8
  %14 = load ptr, ptr %13, align 8
  %15 = sext i32 %12 to i64
  %16 = getelementptr inbounds i8, ptr %14, i64 %15
  store ptr %16, ptr %13, align 8
  %17 = load i32, ptr %6, align 4
  ret i32 %17
}