; Function Attrs: mustprogress nofree norecurse nosync nounwind willreturn memory(readwrite, inaccessiblemem: none) uwtable
define internal noundef i32 @cbuf_get_mem(ptr noundef writeonly captures(none) %0, ptr noundef captures(none) %1, i32 noundef returned %2) #7 {
  %4 = load ptr, ptr %1, align 8
  %5 = sext i32 %2 to i64
  tail call void @llvm.memcpy.p0.p0.i64(ptr align 1 %0, ptr align 1 %4, i64 %5, i1 false)
  %6 = load ptr, ptr %1, align 8
  %7 = getelementptr inbounds i8, ptr %6, i64 %5
  store ptr %7, ptr %1, align 8
  ret i32 %2
}